target datalayout = "e-m:e-p270:32:32-p271:32:32-p272:64:64-i64:64-i128:128-f80:128-n8:16:32:64-S128"
target triple = "x86_64-pc-linux-gnu"

%"class.std::__cxx11::basic_string" = type { %"struct.std::__cxx11::basic_string<char>::_Alloc_hider", i64, %union.anon }
%"struct.std::__cxx11::basic_string<char>::_Alloc_hider" = type { ptr }
%union.anon = type { i64, [8 x i8] }
%"class.std::locale" = type { ptr }
%"class.std::basic_ios" = type { %"class.std::ios_base", ptr, i8, i8, ptr, ptr, ptr, ptr }
%"class.std::ios_base" = type { ptr, i64, i64, i32, i32, i32, ptr, %"struct.std::ios_base::_Words", [8 x %"struct.std::ios_base::_Words"], i32, ptr, %"class.std::locale" }
%"struct.std::ios_base::_Words" = type { ptr, i64 }
%"class.std::basic_istream" = type { ptr, i64, %"class.std::basic_ios" }

; Function Attrs: mustprogress nounwind uwtable
define available_externally noundef i64 @_ZNKSt7__cxx1112basic_stringIcSt11char_traitsIcESaIcEE4sizeEv(ptr noundef nonnull align 8 dereferenceable(32) %0) #5 align 2 {
  %2 = alloca ptr, align 8
  store ptr %0, ptr %2, align 8, !tbaa !11
  %3 = load ptr, ptr %2, align 8
  %4 = getelementptr inbounds nuw %"class.std::__cxx11::basic_string", ptr %3, i32 0, i32 1
  %5 = load i64, ptr %4, align 8, !tbaa !33
  ret i64 %5
}

; Function Attrs: mustprogress uwtable
define available_externally noundef nonnull align 8 dereferenceable(32) ptr @_ZNSt7__cxx1112basic_stringIcSt11char_traitsIcESaIcEE6assignEPKcm(ptr noundef nonnull align 8 dereferenceable(32) %0, ptr noundef %1, i64 noundef %2) #4 align 2 {
  %4 = alloca ptr, align 8
  %5 = alloca ptr, align 8
  %6 = alloca i64, align 8
  store ptr %0, ptr %4, align 8, !tbaa !11
  store ptr %1, ptr %5, align 8, !tbaa !32
  store i64 %2, ptr %6, align 8, !tbaa !31
  %7 = load ptr, ptr %4, align 8
  %8 = call noundef i64 @_ZNKSt7__cxx1112basic_stringIcSt11char_traitsIcESaIcEE4sizeEv(ptr noundef nonnull align 8 dereferenceable(32) %7) #3
  %9 = load ptr, ptr %5, align 8, !tbaa !32
  %10 = load i64, ptr %6, align 8, !tbaa !31
  %11 = call noundef nonnull align 8 dereferenceable(32) ptr @_ZNSt7__cxx1112basic_stringIcSt11char_traitsIcESaIcEE10_M_replaceEmmPKcm(ptr noundef nonnull align 8 dereferenceable(32) %7, i64 noundef 0, i64 noundef %8, ptr noundef %9, i64 noundef %10)
  ret ptr %11
}

; Function Attrs: mustprogress nounwind uwtable
define available_externally noundef i64 @_ZNKSi6gcountEv(ptr noundef nonnull align 8 dereferenceable(16) %0) #5 align 2 {
  %2 = alloca ptr, align 8
  store ptr %0, ptr %2, align 8, !tbaa !27
  %3 = load ptr, ptr %2, align 8
  %4 = getelementptr inbounds nuw %"class.std::basic_istream", ptr %3, i32 0, i32 1
  %5 = load i64, ptr %4, align 8, !tbaa !56
  ret i64 %5
}

; Function Attrs: mustprogress uwtable
define void @_ZN4SHA14readERSiRNSt7__cxx1112basic_stringIcSt11char_traitsIcESaIcEEEm(ptr noundef nonnull align 8 dereferenceable(16) %0, ptr noundef nonnull align 8 dereferenceable(32) %1, i64 noundef %2) #4 align 2 {
  %4 = alloca ptr, align 8
  %5 = alloca ptr, align 8
  %6 = alloca i64, align 8
  %7 = alloca ptr, align 8
  store ptr %0, ptr %4, align 8, !tbaa !27
  store ptr %1, ptr %5, align 8, !tbaa !11
  store i64 %2, ptr %6, align 8, !tbaa !31
  call void @llvm.lifetime.start.p0(i64 8, ptr %7) #3
  %8 = load i64, ptr %6, align 8, !tbaa !31
  %9 = call noalias noundef nonnull ptr @_Znam(i64 noundef %8) #16
  store ptr %9, ptr %7, align 8, !tbaa !32
  %10 = load ptr, ptr %4, align 8, !tbaa !27
  %11 = load ptr, ptr %7, align 8, !tbaa !32
  %12 = load i64, ptr %6, align 8, !tbaa !31
  %13 = call noundef nonnull align 8 dereferenceable(16) ptr @_ZNSi4readEPcl(ptr noundef nonnull align 8 dereferenceable(16) %10, ptr noundef %11, i64 noundef %12)
  %14 = load ptr, ptr %5, align 8, !tbaa !11
  %15 = load ptr, ptr %7, align 8, !tbaa !32
  %16 = load ptr, ptr %4, align 8, !tbaa !27
  %17 = call noundef i64 @_ZNKSi6gcountEv(ptr noundef nonnull align 8 dereferenceable(16) %16)
  %18 = call noundef nonnull align 8 dereferenceable(32) ptr @_ZNSt7__cxx1112basic_stringIcSt11char_traitsIcESaIcEE6assignEPKcm(ptr noundef nonnull align 8 dereferenceable(32) %14, ptr noundef %15, i64 noundef %17)
  %19 = load ptr, ptr %7, align 8, !tbaa !32
  %20 = icmp eq ptr %19, null
  br i1 %20, label %22, label %21

21:                                               ; preds = %3
  call void @_ZdaPv(ptr noundef %19) #17
  br label %22

22:                                               ; preds = %21, %3
  call void @llvm.lifetime.end.p0(i64 8, ptr %7) #3
  ret void
}